#include <math.h>
#include <stdio.h>
#include <stdlib.h>
#include <string.h>

       /*??,????!*/
int main()
{
	int a[8][8];
	int m,n,i,j;
	scanf("%d,%d",&m,&n);
	for(i=0;i<m;i++)
	{
		for(j=0;j<n;j++)
		{
			scanf("%d",&a[i][j]);
		}
	}
	int count=0;
	int p,q;
	int k;
    for(i=0;i<m;i++)
	{
		p=i;
		q=0;
		for(j=1;j<n;j++)
		{
			if(a[p][q]<a[i][j])
				q=j;
		} 
		count=0;
		for(k=0;k<m;k++)
		{
			if(a[p][q]<=a[k][q])
				count++;
		}
		if(count==m)
		{
			break;
		}
	}
	if(count==m)
		printf("%d+%d",p,q);
	else 
		printf("No");
	return 0;
}
